; Function Attrs: nofree norecurse nosync nounwind memory(read, inaccessiblemem: none) uwtable
define i32 @Acb_NtkCountRoots(ptr noundef readonly captures(none) %0, i32 noundef %1) local_unnamed_addr #5 {
  %3 = getelementptr i8, ptr %0, i64 4
  %.val = load i32, ptr %3, align 4, !tbaa !15
  %.0810 = add nsw i32 %1, 1
  %4 = icmp slt i32 %.0810, %.val
  br i1 %4, label %.lr.ph, label %.critedge

.lr.ph:                                           ; preds = %2
  %5 = getelementptr i8, ptr %0, i64 8
  %.val9 = load ptr, ptr %5, align 8, !tbaa !18
  %6 = sext i32 %1 to i64
  %7 = add nsw i64 %6, 1
  br label %8

8:                                                ; preds = %.lr.ph, %8
  %indvars.iv = phi i64 [ %7, %.lr.ph ], [ %indvars.iv.next, %8 ]
  %.011 = phi i32 [ 0, %.lr.ph ], [ %12, %8 ]
  %9 = getelementptr inbounds i32, ptr %.val9, i64 %indvars.iv
  %10 = load i32, ptr %9, align 4, !tbaa !19
  %11 = and i32 %10, 1
  %12 = add nuw nsw i32 %11, %.011
  %indvars.iv.next = add nsw i64 %indvars.iv, 1
  %lftr.wideiv = trunc i64 %indvars.iv.next to i32
  %exitcond.not = icmp eq i32 %.val, %lftr.wideiv
  br i1 %exitcond.not, label %.critedge, label %8, !llvm.loop !33

.critedge:                                        ; preds = %8, %2
  %.0.lcssa = phi i32 [ 0, %2 ], [ %12, %8 ]
  ret i32 %.0.lcssa
}